target datalayout = "e-m:e-p270:32:32-p271:32:32-p272:64:64-i64:64-i128:128-f80:128-n8:16:32:64-S128"
target triple = "x86_64-pc-linux-gnu"

%"class.QMetaObject::Connection" = type { ptr }
%class.QWidget = type { %class.QObject, %class.QPaintDevice, ptr }
%class.QObject = type { ptr, %class.QScopedPointer }
%class.QScopedPointer = type { ptr }
%class.QPaintDevice = type { ptr, i16, ptr }
%class.MLRenderingFloatSlider = type <{ %class.MLFloatSlider, ptr, i32, [4 x i8] }>
%class.MLFloatSlider = type { %class.QSlider }
%class.QSlider = type { %class.QAbstractSlider }
%class.QAbstractSlider = type { %class.QWidget }

@_ZTV22MLRenderingFloatSlider = external unnamed_addr constant { [55 x ptr], [10 x ptr] }, align 8
@.str.40 = private unnamed_addr constant [26 x i8] c"2floatValueChanged(float)\00", align 1
@.str.41 = private unnamed_addr constant [21 x i8] c"1valueChanged(float)\00", align 1

; Function Attrs: mustprogress nounwind uwtable
define linkonce_odr void @_ZN13MLFloatSliderD2Ev(ptr noundef nonnull align 8 dereferenceable(48) %0) unnamed_addr #4 comdat align 2 {
  %2 = alloca ptr, align 8
  store ptr %0, ptr %2, align 8
  %3 = load ptr, ptr %2, align 8
  call void @_ZN7QSliderD2Ev(ptr noundef nonnull align 8 dereferenceable(48) %3) #3
  ret void
}

; Function Attrs: mustprogress uwtable
define void @_ZN22MLRenderingFloatSliderC2EiP7QWidget(ptr noundef nonnull align 8 dereferenceable(60) %0, i32 noundef %1, ptr noundef %2) unnamed_addr #5 align 2 personality ptr @__gxx_personality_v0 {
  %4 = alloca ptr, align 8
  %5 = alloca i32, align 4
  %6 = alloca ptr, align 8
  %7 = alloca %"class.QMetaObject::Connection", align 8
  %8 = alloca ptr, align 8
  %9 = alloca i32, align 4
  store ptr %0, ptr %4, align 8
  store i32 %1, ptr %5, align 4
  store ptr %2, ptr %6, align 8
  %10 = load ptr, ptr %4, align 8
  %11 = load ptr, ptr %6, align 8
  call void @_ZN13MLFloatSliderC2EP7QWidget(ptr noundef nonnull align 8 dereferenceable(48) %10, ptr noundef %11)
  store ptr getelementptr inbounds ({ [55 x ptr], [10 x ptr] }, ptr @_ZTV22MLRenderingFloatSlider, i32 0, i32 0, i32 2), ptr %10, align 8
  %12 = getelementptr inbounds i8, ptr %10, i64 16
  store ptr getelementptr inbounds ({ [55 x ptr], [10 x ptr] }, ptr @_ZTV22MLRenderingFloatSlider, i32 0, i32 1, i32 2), ptr %12, align 8
  %13 = getelementptr inbounds %class.MLRenderingFloatSlider, ptr %10, i32 0, i32 1
  store ptr null, ptr %13, align 8
  %14 = getelementptr inbounds %class.MLRenderingFloatSlider, ptr %10, i32 0, i32 2
  %15 = load i32, ptr %5, align 4
  store i32 %15, ptr %14, align 8
  invoke void @_ZN7QObject7connectEPKS_PKcS1_S3_N2Qt14ConnectionTypeE(ptr dead_on_unwind writable sret(%"class.QMetaObject::Connection") align 8 %7, ptr noundef %10, ptr noundef @.str.40, ptr noundef %10, ptr noundef @.str.41, i32 noundef 0)
          to label %16 unwind label %17

16:                                               ; preds = %3
  call void @_ZN11QMetaObject10ConnectionD1Ev(ptr noundef nonnull align 8 dereferenceable(8) %7) #3
  ret void

17:                                               ; preds = %3
  %18 = landingpad { ptr, i32 }
          cleanup
  %19 = extractvalue { ptr, i32 } %18, 0
  store ptr %19, ptr %8, align 8
  %20 = extractvalue { ptr, i32 } %18, 1
  store i32 %20, ptr %9, align 4
  call void @_ZN13MLFloatSliderD2Ev(ptr noundef nonnull align 8 dereferenceable(48) %10) #3
  br label %21

21:                                               ; preds = %17
  %22 = load ptr, ptr %8, align 8
  %23 = load i32, ptr %9, align 4
  %24 = insertvalue { ptr, i32 } poison, ptr %22, 0
  %25 = insertvalue { ptr, i32 } %24, i32 %23, 1
  resume { ptr, i32 } %25
}