; Function Attrs: mustprogress uwtable
define void @_ZN22MLRenderingFloatSliderC2EiP7QWidget(ptr noundef nonnull align 8 dereferenceable(60) %0, i32 noundef %1, ptr noundef %2) unnamed_addr #3 align 2 personality ptr @__gxx_personality_v0 {
  %4 = alloca %"class.QMetaObject::Connection", align 8
  tail call void @_ZN13MLFloatSliderC2EP7QWidget(ptr noundef nonnull align 8 dereferenceable(48) %0, ptr noundef %2)
  store ptr getelementptr inbounds ({ [55 x ptr], [10 x ptr] }, ptr @_ZTV22MLRenderingFloatSlider, i64 0, i32 0, i64 2), ptr %0, align 8
  %5 = getelementptr inbounds i8, ptr %0, i64 16
  store ptr getelementptr inbounds ({ [55 x ptr], [10 x ptr] }, ptr @_ZTV22MLRenderingFloatSlider, i64 0, i32 1, i64 2), ptr %5, align 8
  %6 = getelementptr inbounds i8, ptr %0, i64 48
  store ptr null, ptr %6, align 8
  %7 = getelementptr inbounds i8, ptr %0, i64 56
  store i32 %1, ptr %7, align 8
  invoke void @_ZN7QObject7connectEPKS_PKcS1_S3_N2Qt14ConnectionTypeE(ptr dead_on_unwind nonnull writable sret(%"class.QMetaObject::Connection") align 8 %4, ptr noundef nonnull %0, ptr noundef nonnull @.str.40, ptr noundef nonnull %0, ptr noundef nonnull @.str.41, i32 noundef 0)
          to label %8 unwind label %9

8:                                                ; preds = %3
  call void @_ZN11QMetaObject10ConnectionD1Ev(ptr noundef nonnull align 8 dereferenceable(8) %4) #23
  ret void

9:                                                ; preds = %3
  %10 = landingpad { ptr, i32 }
          cleanup
  call void @_ZN7QSliderD2Ev(ptr noundef nonnull align 8 dereferenceable(48) %0) #23
  resume { ptr, i32 } %10
}